target datalayout = "e-m:e-p270:32:32-p271:32:32-p272:64:64-i64:64-i128:128-f80:128-n8:16:32:64-S128"
target triple = "x86_64-pc-linux-gnu"

%"class.pxrInternal_v0_24__pxrReserved__::GfMatrix4d" = type { %"class.pxrInternal_v0_24__pxrReserved__::GfMatrixData" }
%"class.pxrInternal_v0_24__pxrReserved__::GfMatrixData" = type { [16 x double] }
%"class.pxrInternal_v0_24__pxrReserved__::GfBBox3d" = type <{ %"class.pxrInternal_v0_24__pxrReserved__::GfRange3d", %"class.pxrInternal_v0_24__pxrReserved__::GfMatrix4d", %"class.pxrInternal_v0_24__pxrReserved__::GfMatrix4d", i8, i8, [6 x i8] }>
%"class.pxrInternal_v0_24__pxrReserved__::GfRange3d" = type { %"class.pxrInternal_v0_24__pxrReserved__::GfVec3d", %"class.pxrInternal_v0_24__pxrReserved__::GfVec3d" }
%"class.pxrInternal_v0_24__pxrReserved__::GfVec3d" = type { [3 x double] }

; Function Attrs: mustprogress uwtable
define linkonce_odr noundef nonnull align 8 dereferenceable(128) ptr @_ZN32pxrInternal_v0_24__pxrReserved__10GfMatrix4d11SetIdentityEv(ptr noundef nonnull align 8 dereferenceable(128) %0) #0 comdat align 2 {
  %2 = alloca ptr, align 8
  store ptr %0, ptr %2, align 8
  %3 = load ptr, ptr %2, align 8
  %4 = call noundef nonnull align 8 dereferenceable(128) ptr @_ZN32pxrInternal_v0_24__pxrReserved__10GfMatrix4d11SetDiagonalEd(ptr noundef nonnull align 8 dereferenceable(128) %3, double noundef 1.000000e+00)
  ret ptr %4
}

; Function Attrs: mustprogress nounwind uwtable
define linkonce_odr noundef double @_ZN32pxrInternal_v0_24__pxrReserved__5GfAbsEd(double noundef %0) #2 comdat {
  %2 = alloca double, align 8
  store double %0, ptr %2, align 8
  %3 = load double, ptr %2, align 8
  %4 = call double @llvm.fabs.f64(double %3)
  ret double %4
}

; Function Attrs: mustprogress uwtable
define void @_ZN32pxrInternal_v0_24__pxrReserved__8GfBBox3d12_SetMatricesERKNS_10GfMatrix4dE(ptr noundef nonnull align 8 dereferenceable(306) %0, ptr noundef nonnull align 8 dereferenceable(128) %1) #0 align 2 {
  %3 = alloca ptr, align 8
  %4 = alloca ptr, align 8
  %5 = alloca double, align 8
  %6 = alloca double, align 8
  %7 = alloca %"class.pxrInternal_v0_24__pxrReserved__::GfMatrix4d", align 8
  store ptr %0, ptr %3, align 8
  store ptr %1, ptr %4, align 8
  %8 = load ptr, ptr %3, align 8
  store double 1.000000e-13, ptr %5, align 8
  %9 = getelementptr inbounds nuw %"class.pxrInternal_v0_24__pxrReserved__::GfBBox3d", ptr %8, i32 0, i32 3
  store i8 0, ptr %9, align 8
  %10 = load ptr, ptr %4, align 8
  %11 = getelementptr inbounds nuw %"class.pxrInternal_v0_24__pxrReserved__::GfBBox3d", ptr %8, i32 0, i32 1
  call void @llvm.memcpy.p0.p0.i64(ptr align 8 %11, ptr align 8 %10, i64 128, i1 false)
  %12 = load ptr, ptr %4, align 8
  call void @_ZNK32pxrInternal_v0_24__pxrReserved__10GfMatrix4d10GetInverseEPdd(ptr dead_on_unwind writable sret(%"class.pxrInternal_v0_24__pxrReserved__::GfMatrix4d") align 8 %7, ptr noundef nonnull align 8 dereferenceable(128) %12, ptr noundef %6, double noundef 1.000000e-13)
  %13 = getelementptr inbounds nuw %"class.pxrInternal_v0_24__pxrReserved__::GfBBox3d", ptr %8, i32 0, i32 2
  call void @llvm.memcpy.p0.p0.i64(ptr align 8 %13, ptr align 8 %7, i64 128, i1 false)
  %14 = load double, ptr %6, align 8
  %15 = call noundef double @_ZN32pxrInternal_v0_24__pxrReserved__5GfAbsEd(double noundef %14)
  %16 = fcmp ole double %15, 1.000000e-13
  br i1 %16, label %17, label %21

17:                                               ; preds = %2
  %18 = getelementptr inbounds nuw %"class.pxrInternal_v0_24__pxrReserved__::GfBBox3d", ptr %8, i32 0, i32 3
  store i8 1, ptr %18, align 8
  %19 = getelementptr inbounds nuw %"class.pxrInternal_v0_24__pxrReserved__::GfBBox3d", ptr %8, i32 0, i32 2
  %20 = call noundef nonnull align 8 dereferenceable(128) ptr @_ZN32pxrInternal_v0_24__pxrReserved__10GfMatrix4d11SetIdentityEv(ptr noundef nonnull align 8 dereferenceable(128) %19)
  br label %21

21:                                               ; preds = %17, %2
  ret void
}