; Function Attrs: mustprogress uwtable
define void @_ZN32pxrInternal_v0_24__pxrReserved__8GfBBox3d12_SetMatricesERKNS_10GfMatrix4dE(ptr noundef nonnull align 8 dereferenceable(306) initializes((48, 305)) %0, ptr noundef nonnull align 8 dereferenceable(128) %1) local_unnamed_addr #0 align 2 {
  %3 = alloca double, align 8
  %4 = alloca %"class.pxrInternal_v0_24__pxrReserved__::GfMatrix4d", align 8
  %5 = getelementptr inbounds nuw i8, ptr %0, i64 304
  store i8 0, ptr %5, align 8
  %6 = getelementptr inbounds nuw i8, ptr %0, i64 48
  tail call void @llvm.memcpy.p0.p0.i64(ptr noundef nonnull align 8 dereferenceable(128) %6, ptr noundef nonnull align 8 dereferenceable(128) %1, i64 128, i1 false)
  call void @_ZNK32pxrInternal_v0_24__pxrReserved__10GfMatrix4d10GetInverseEPdd(ptr dead_on_unwind nonnull writable sret(%"class.pxrInternal_v0_24__pxrReserved__::GfMatrix4d") align 8 %4, ptr noundef nonnull align 8 dereferenceable(128) %1, ptr noundef nonnull %3, double noundef 1.000000e-13)
  %7 = getelementptr inbounds nuw i8, ptr %0, i64 176
  call void @llvm.memcpy.p0.p0.i64(ptr noundef nonnull align 8 dereferenceable(128) %7, ptr noundef nonnull align 8 dereferenceable(128) %4, i64 128, i1 false)
  %8 = load double, ptr %3, align 8
  %9 = call noundef double @llvm.fabs.f64(double %8)
  %10 = fcmp ugt double %9, 1.000000e-13
  br i1 %10, label %13, label %11

11:                                               ; preds = %2
  store i8 1, ptr %5, align 8
  %12 = call noundef nonnull align 8 dereferenceable(128) ptr @_ZN32pxrInternal_v0_24__pxrReserved__10GfMatrix4d11SetDiagonalEd(ptr noundef nonnull align 8 dereferenceable(128) %7, double noundef 1.000000e+00)
  br label %13

13:                                               ; preds = %11, %2
  ret void
}